; Function Attrs: mustprogress norecurse uwtable
define internal fastcc void @_ZNK32pxrInternal_v0_24__pxrReserved__12TfStaticDataIN12_GLOBAL__N_18IndenterENS_27Tf_StaticDataDefaultFactoryIS2_EEEptEv() unnamed_addr #3 align 2 personality ptr @__gxx_personality_v0 {
  %1 = load atomic i64, ptr @indenter seq_cst, align 8
  %.not.i = icmp eq i64 %1, 0
  br i1 %.not.i, label %2, label %_ZNK32pxrInternal_v0_24__pxrReserved__12TfStaticDataIN12_GLOBAL__N_18IndenterENS_27Tf_StaticDataDefaultFactoryIS2_EEE3GetEv.exit

2:                                                ; preds = %0
  %3 = tail call noalias noundef nonnull dereferenceable(1) ptr @_Znwm(i64 noundef 1) #25
  %4 = load i32, ptr @_ZN12_GLOBAL__N_18Indenter7_indentE, align 4
  %5 = add nsw i32 %4, 1
  store i32 %5, ptr @_ZN12_GLOBAL__N_18Indenter7_indentE, align 4
  %6 = ptrtoint ptr %3 to i64
  %7 = cmpxchg ptr @indenter, i64 0, i64 %6 seq_cst seq_cst, align 8
  %8 = extractvalue { i64, i1 } %7, 1
  br i1 %8, label %_ZNK32pxrInternal_v0_24__pxrReserved__12TfStaticDataIN12_GLOBAL__N_18IndenterENS_27Tf_StaticDataDefaultFactoryIS2_EEE3GetEv.exit, label %9

9:                                                ; preds = %2
  %10 = load i32, ptr @_ZN12_GLOBAL__N_18Indenter7_indentE, align 4
  %11 = add nsw i32 %10, -1
  store i32 %11, ptr @_ZN12_GLOBAL__N_18Indenter7_indentE, align 4
  tail call void @_ZdlPvm(ptr noundef nonnull %3, i64 noundef 1) #26
  %12 = load atomic i64, ptr @indenter seq_cst, align 8
  br label %_ZNK32pxrInternal_v0_24__pxrReserved__12TfStaticDataIN12_GLOBAL__N_18IndenterENS_27Tf_StaticDataDefaultFactoryIS2_EEE3GetEv.exit

_ZNK32pxrInternal_v0_24__pxrReserved__12TfStaticDataIN12_GLOBAL__N_18IndenterENS_27Tf_StaticDataDefaultFactoryIS2_EEE3GetEv.exit: ; preds = %0, %2, %9
  ret void
}